target datalayout = "e-m:e-p270:32:32-p271:32:32-p272:64:64-i64:64-i128:128-f80:128-n8:16:32:64-S128"
target triple = "x86_64-pc-linux-gnu"

@_ZL6gCache = internal global ptr null, align 8

; Function Attrs: mustprogress nounwind uwtable
define noundef signext i8 @_ZN6icu_7714HebrewCalendar10isLeapYearEi(i32 noundef %0) #3 align 2 {
  %2 = alloca i32, align 4
  %3 = alloca i64, align 8
  store i32 %0, ptr %2, align 4, !tbaa !15
  call void @llvm.lifetime.start.p0(i64 8, ptr %3) #11
  %4 = load i32, ptr %2, align 4, !tbaa !15
  %5 = sext i32 %4 to i64
  %6 = mul nsw i64 %5, 12
  %7 = add nsw i64 %6, 17
  %8 = srem i64 %7, 19
  store i64 %8, ptr %3, align 8, !tbaa !19
  %9 = load i64, ptr %3, align 8, !tbaa !19
  %10 = load i64, ptr %3, align 8, !tbaa !19
  %11 = icmp slt i64 %10, 0
  %12 = select i1 %11, i32 -7, i32 12
  %13 = sext i32 %12 to i64
  %14 = icmp sge i64 %9, %13
  %15 = zext i1 %14 to i8
  call void @llvm.lifetime.end.p0(i64 8, ptr %3) #11
  ret i8 %15
}

; Function Attrs: inlinehint mustprogress nounwind uwtable
define internal noundef signext i8 @_ZL9U_FAILURE10UErrorCode(i32 noundef %0) #4 {
  %2 = alloca i32, align 4
  store i32 %0, ptr %2, align 4, !tbaa !17
  %3 = load i32, ptr %2, align 4, !tbaa !17
  %4 = icmp sgt i32 %3, 0
  %5 = zext i1 %4 to i8
  ret i8 %5
}

; Function Attrs: mustprogress uwtable
define internal noundef i32 @_ZN6icu_7712_GLOBAL__N_111startOfYearEiR10UErrorCode(i32 noundef %0, ptr noundef nonnull align 4 dereferenceable(4) %1) #0 {
  %3 = alloca i32, align 4
  %4 = alloca i32, align 4
  %5 = alloca ptr, align 8
  %6 = alloca i64, align 8
  %7 = alloca i32, align 4
  %8 = alloca i64, align 8
  %9 = alloca i64, align 8
  %10 = alloca i32, align 4
  store i32 %0, ptr %4, align 4, !tbaa !15
  store ptr %1, ptr %5, align 8, !tbaa !10
  call void @ucln_i18n_registerCleanup_77(i32 noundef 10, ptr noundef @_ZL23calendar_hebrew_cleanupv)
  call void @llvm.lifetime.start.p0(i64 8, ptr %6) #11
  %11 = load i32, ptr %4, align 4, !tbaa !15
  %12 = load ptr, ptr %5, align 8, !tbaa !10
  %13 = call noundef i32 @_ZN6icu_7713CalendarCache3getEPPS0_iR10UErrorCode(ptr noundef @_ZL6gCache, i32 noundef %11, ptr noundef nonnull align 4 dereferenceable(4) %12)
  %14 = sext i32 %13 to i64
  store i64 %14, ptr %6, align 8, !tbaa !19
  %15 = load ptr, ptr %5, align 8, !tbaa !10
  %16 = load i32, ptr %15, align 4, !tbaa !17
  %17 = call noundef signext i8 @_ZL9U_FAILURE10UErrorCode(i32 noundef %16)
  %18 = icmp ne i8 %17, 0
  br i1 %18, label %19, label %20

19:                                               ; preds = %2
  store i32 0, ptr %3, align 4
  store i32 1, ptr %7, align 4
  br label %103

20:                                               ; preds = %2
  %21 = load i64, ptr %6, align 8, !tbaa !19
  %22 = icmp eq i64 %21, 0
  br i1 %22, label %23, label %100

23:                                               ; preds = %20
  call void @llvm.lifetime.start.p0(i64 8, ptr %8) #11
  %24 = load i32, ptr %4, align 4, !tbaa !15
  %25 = sext i32 %24 to i64
  %26 = mul nsw i64 235, %25
  %27 = sub nsw i64 %26, 234
  %28 = call noundef i64 @_ZN6icu_779ClockMath16floorDivideInt64Ell(i64 noundef %27, i64 noundef 19)
  store i64 %28, ptr %8, align 8, !tbaa !19
  call void @llvm.lifetime.start.p0(i64 8, ptr %9) #11
  %29 = load i64, ptr %8, align 8, !tbaa !19
  %30 = mul nsw i64 %29, 13753
  %31 = add nsw i64 %30, 12084
  store i64 %31, ptr %9, align 8, !tbaa !19
  %32 = load i64, ptr %8, align 8, !tbaa !19
  %33 = mul nsw i64 %32, 29
  %34 = load i64, ptr %9, align 8, !tbaa !19
  %35 = sdiv i64 %34, 25920
  %36 = add nsw i64 %33, %35
  store i64 %36, ptr %6, align 8, !tbaa !19
  %37 = load i64, ptr %9, align 8, !tbaa !19
  %38 = srem i64 %37, 25920
  store i64 %38, ptr %9, align 8, !tbaa !19
  call void @llvm.lifetime.start.p0(i64 4, ptr %10) #11
  %39 = load i64, ptr %6, align 8, !tbaa !19
  %40 = srem i64 %39, 7
  %41 = trunc i64 %40 to i32
  store i32 %41, ptr %10, align 4, !tbaa !15
  %42 = load i32, ptr %10, align 4, !tbaa !15
  %43 = icmp eq i32 %42, 2
  br i1 %43, label %50, label %44

44:                                               ; preds = %23
  %45 = load i32, ptr %10, align 4, !tbaa !15
  %46 = icmp eq i32 %45, 4
  br i1 %46, label %50, label %47

47:                                               ; preds = %44
  %48 = load i32, ptr %10, align 4, !tbaa !15
  %49 = icmp eq i32 %48, 6
  br i1 %49, label %50, label %56

50:                                               ; preds = %47, %44, %23
  %51 = load i64, ptr %6, align 8, !tbaa !19
  %52 = add nsw i64 %51, 1
  store i64 %52, ptr %6, align 8, !tbaa !19
  %53 = load i64, ptr %6, align 8, !tbaa !19
  %54 = srem i64 %53, 7
  %55 = trunc i64 %54 to i32
  store i32 %55, ptr %10, align 4, !tbaa !15
  br label %56

56:                                               ; preds = %50, %47
  %57 = load i32, ptr %10, align 4, !tbaa !15
  %58 = icmp eq i32 %57, 1
  br i1 %58, label %59, label %69

59:                                               ; preds = %56
  %60 = load i64, ptr %9, align 8, !tbaa !19
  %61 = icmp sgt i64 %60, 16404
  br i1 %61, label %62, label %69

62:                                               ; preds = %59
  %63 = load i32, ptr %4, align 4, !tbaa !15
  %64 = call noundef signext i8 @_ZN6icu_7714HebrewCalendar10isLeapYearEi(i32 noundef %63)
  %65 = icmp ne i8 %64, 0
  br i1 %65, label %69, label %66

66:                                               ; preds = %62
  %67 = load i64, ptr %6, align 8, !tbaa !19
  %68 = add nsw i64 %67, 2
  store i64 %68, ptr %6, align 8, !tbaa !19
  br label %84

69:                                               ; preds = %62, %59, %56
  %70 = load i32, ptr %10, align 4, !tbaa !15
  %71 = icmp eq i32 %70, 0
  br i1 %71, label %72, label %83

72:                                               ; preds = %69
  %73 = load i64, ptr %9, align 8, !tbaa !19
  %74 = icmp sgt i64 %73, 23269
  br i1 %74, label %75, label %83

75:                                               ; preds = %72
  %76 = load i32, ptr %4, align 4, !tbaa !15
  %77 = sub nsw i32 %76, 1
  %78 = call noundef signext i8 @_ZN6icu_7714HebrewCalendar10isLeapYearEi(i32 noundef %77)
  %79 = icmp ne i8 %78, 0
  br i1 %79, label %80, label %83

80:                                               ; preds = %75
  %81 = load i64, ptr %6, align 8, !tbaa !19
  %82 = add nsw i64 %81, 1
  store i64 %82, ptr %6, align 8, !tbaa !19
  br label %83

83:                                               ; preds = %80, %75, %72, %69
  br label %84

84:                                               ; preds = %83, %66
  %85 = load i64, ptr %6, align 8, !tbaa !19
  %86 = icmp sgt i64 %85, 2147483647
  br i1 %86, label %90, label %87

87:                                               ; preds = %84
  %88 = load i64, ptr %6, align 8, !tbaa !19
  %89 = icmp slt i64 %88, -2147483648
  br i1 %89, label %90, label %92

90:                                               ; preds = %87, %84
  %91 = load ptr, ptr %5, align 8, !tbaa !10
  store i32 1, ptr %91, align 4, !tbaa !17
  store i32 0, ptr %3, align 4
  store i32 1, ptr %7, align 4
  br label %97

92:                                               ; preds = %87
  %93 = load i32, ptr %4, align 4, !tbaa !15
  %94 = load i64, ptr %6, align 8, !tbaa !19
  %95 = trunc i64 %94 to i32
  %96 = load ptr, ptr %5, align 8, !tbaa !10
  call void @_ZN6icu_7713CalendarCache3putEPPS0_iiR10UErrorCode(ptr noundef @_ZL6gCache, i32 noundef %93, i32 noundef %95, ptr noundef nonnull align 4 dereferenceable(4) %96)
  store i32 0, ptr %7, align 4
  br label %97

97:                                               ; preds = %92, %90
  call void @llvm.lifetime.end.p0(i64 4, ptr %10) #11
  call void @llvm.lifetime.end.p0(i64 8, ptr %9) #11
  call void @llvm.lifetime.end.p0(i64 8, ptr %8) #11
  %98 = load i32, ptr %7, align 4
  switch i32 %98, label %103 [
    i32 0, label %99
  ]

99:                                               ; preds = %97
  br label %100

100:                                              ; preds = %99, %20
  %101 = load i64, ptr %6, align 8, !tbaa !19
  %102 = trunc i64 %101 to i32
  store i32 %102, ptr %3, align 4
  store i32 1, ptr %7, align 4
  br label %103

103:                                              ; preds = %100, %97, %19
  call void @llvm.lifetime.end.p0(i64 8, ptr %6) #11
  %104 = load i32, ptr %3, align 4
  ret i32 %104
}