; Function Attrs: mustprogress uwtable
define internal fastcc noundef i32 @_ZN6icu_7712_GLOBAL__N_111startOfYearEiR10UErrorCode(i32 noundef %0, ptr noundef nonnull align 4 dereferenceable(4) %1) unnamed_addr #0 {
  tail call void @ucln_i18n_registerCleanup_77(i32 noundef 10, ptr noundef nonnull @_ZL23calendar_hebrew_cleanupv)
  %3 = tail call noundef i32 @_ZN6icu_7713CalendarCache3getEPPS0_iR10UErrorCode(ptr noundef nonnull @_ZL6gCache, i32 noundef %0, ptr noundef nonnull align 4 dereferenceable(4) %1)
  %4 = load i32, ptr %1, align 4, !tbaa !6
  %5 = icmp slt i32 %4, 1
  br i1 %5, label %6, label %48

6:                                                ; preds = %2
  %7 = icmp eq i32 %3, 0
  br i1 %7, label %8, label %48

8:                                                ; preds = %6
  %9 = sext i32 %0 to i64
  %10 = mul nsw i64 %9, 235
  %11 = add nsw i64 %10, -234
  %12 = tail call noundef i64 @_ZN6icu_779ClockMath16floorDivideInt64Ell(i64 noundef %11, i64 noundef 19)
  %13 = mul nsw i64 %12, 13753
  %14 = add nsw i64 %13, 12084
  %15 = mul nsw i64 %12, 29
  %16 = sdiv i64 %14, 25920
  %17 = add nsw i64 %16, %15
  %18 = srem i64 %14, 25920
  %19 = srem i64 %17, 7
  switch i64 %19, label %23 [
    i64 6, label %20
    i64 4, label %20
    i64 2, label %20
  ]

20:                                               ; preds = %8, %8, %8
  %21 = add nsw i64 %17, 1
  %22 = srem i64 %21, 7
  br label %23

23:                                               ; preds = %8, %20
  %.143 = phi i64 [ %21, %20 ], [ %17, %8 ]
  %.0.in = phi i64 [ %22, %20 ], [ %19, %8 ]
  %24 = icmp eq i64 %.0.in, 1
  %25 = icmp sgt i64 %18, 16404
  %or.cond5 = and i1 %25, %24
  br i1 %or.cond5, label %26, label %33

26:                                               ; preds = %23
  %27 = mul nsw i64 %9, 12
  %28 = add nsw i64 %27, 17
  %29 = srem i64 %28, 19
  %30 = icmp slt i64 %29, 0
  %31 = select i1 %30, i64 -7, i64 12
  %.not51 = icmp slt i64 %29, %31
  %32 = add nsw i64 %.143, 2
  %spec.select50 = select i1 %.not51, i64 %32, i64 %.143
  br label %.thread

33:                                               ; preds = %23
  %34 = icmp eq i64 %.0.in, 0
  %35 = icmp sgt i64 %18, 23269
  %or.cond7 = and i1 %35, %34
  br i1 %or.cond7, label %36, label %.thread

36:                                               ; preds = %33
  %37 = add nsw i32 %0, -1
  %38 = sext i32 %37 to i64
  %39 = mul nsw i64 %38, 12
  %40 = add nsw i64 %39, 17
  %41 = srem i64 %40, 19
  %42 = icmp slt i64 %41, 0
  %43 = select i1 %42, i64 -7, i64 12
  %.not = icmp sge i64 %41, %43
  %44 = zext i1 %.not to i64
  %spec.select = add nsw i64 %.143, %44
  br label %.thread

.thread:                                          ; preds = %26, %36, %33
  %.2 = phi i64 [ %.143, %33 ], [ %spec.select, %36 ], [ %spec.select50, %26 ]
  %45 = add i64 %.2, 2147483648
  %or.cond9 = icmp ult i64 %45, 4294967296
  br i1 %or.cond9, label %.thread49, label %47

.thread49:                                        ; preds = %.thread
  %46 = trunc i64 %.2 to i32
  tail call void @_ZN6icu_7713CalendarCache3putEPPS0_iiR10UErrorCode(ptr noundef nonnull @_ZL6gCache, i32 noundef %0, i32 noundef %46, ptr noundef nonnull align 4 dereferenceable(4) %1)
  br label %48

47:                                               ; preds = %.thread
  store i32 1, ptr %1, align 4, !tbaa !6
  br label %48

48:                                               ; preds = %6, %.thread49, %47, %2
  %.040 = phi i32 [ 0, %47 ], [ 0, %2 ], [ %3, %6 ], [ %46, %.thread49 ]
  ret i32 %.040
}